; ModuleID = '8/1054.cpp'
source_filename = "8/1054.cpp"
target datalayout = "e-m:e-p270:32:32-p271:32:32-p272:64:64-i64:64-f80:128-n8:16:32:64-S128"
target triple = "x86_64-pc-linux-gnu"

%"class.std::ios_base::Init" = type { i8 }
%"class.std::basic_istream" = type { i32 (...)**, i64, %"class.std::basic_ios" }
%"class.std::basic_ios" = type { %"class.std::ios_base", %"class.std::basic_ostream"*, i8, i8, %"class.std::basic_streambuf"*, %"class.std::ctype"*, %"class.std::num_put"*, %"class.std::num_get"* }
%"class.std::ios_base" = type { i32 (...)**, i64, i64, i32, i32, i32, %"struct.std::ios_base::_Callback_list"*, %"struct.std::ios_base::_Words", [8 x %"struct.std::ios_base::_Words"], i32, %"struct.std::ios_base::_Words"*, %"class.std::locale" }
%"struct.std::ios_base::_Callback_list" = type { %"struct.std::ios_base::_Callback_list"*, void (i32, %"class.std::ios_base"*, i32)*, i32, i32 }
%"struct.std::ios_base::_Words" = type { i8*, i64 }
%"class.std::locale" = type { %"class.std::locale::_Impl"* }
%"class.std::locale::_Impl" = type { i32, %"class.std::locale::facet"**, i64, %"class.std::locale::facet"**, i8** }
%"class.std::locale::facet" = type <{ i32 (...)**, i32, [4 x i8] }>
%"class.std::basic_ostream" = type { i32 (...)**, %"class.std::basic_ios" }
%"class.std::basic_streambuf" = type { i32 (...)**, i8*, i8*, i8*, i8*, i8*, i8*, %"class.std::locale" }
%"class.std::ctype" = type <{ %"class.std::locale::facet.base", [4 x i8], %struct.__locale_struct*, i8, [7 x i8], i32*, i32*, i16*, i8, [256 x i8], [256 x i8], i8, [6 x i8] }>
%"class.std::locale::facet.base" = type <{ i32 (...)**, i32 }>
%struct.__locale_struct = type { [13 x %struct.__locale_data*], i16*, i32*, i32*, [13 x i8*] }
%struct.__locale_data = type opaque
%"class.std::num_put" = type { %"class.std::locale::facet.base", [4 x i8] }
%"class.std::num_get" = type { %"class.std::locale::facet.base", [4 x i8] }

@_ZStL8__ioinit = internal global %"class.std::ios_base::Init" zeroinitializer, align 1
@__dso_handle = external hidden global i8
@m = dso_local global i32 0, align 4
@n = dso_local global i32 0, align 4
@i = dso_local global i32 0, align 4
@a = dso_local global [100 x i32] zeroinitializer, align 16
@b = dso_local global [100 x i32] zeroinitializer, align 16
@c = dso_local global [200 x i32] zeroinitializer, align 16
@_ZSt3cin = external dso_local global %"class.std::basic_istream", align 8
@_ZSt4cout = external dso_local global %"class.std::basic_ostream", align 8
@.str = private unnamed_addr constant [2 x i8] c" \00", align 1
@llvm.global_ctors = appending global [1 x { i32, void ()*, i8* }] [{ i32, void ()*, i8* } { i32 65535, void ()* @_GLOBAL__sub_I_1054.cpp, i8* null }]

; Function Attrs: noinline uwtable
define internal void @__cxx_global_var_init() #0 section ".text.startup" {
  call void @_ZNSt8ios_base4InitC1Ev(%"class.std::ios_base::Init"* @_ZStL8__ioinit)
  %1 = call i32 @__cxa_atexit(void (i8*)* bitcast (void (%"class.std::ios_base::Init"*)* @_ZNSt8ios_base4InitD1Ev to void (i8*)*), i8* getelementptr inbounds (%"class.std::ios_base::Init", %"class.std::ios_base::Init"* @_ZStL8__ioinit, i32 0, i32 0), i8* @__dso_handle) #3
  ret void
}

declare dso_local void @_ZNSt8ios_base4InitC1Ev(%"class.std::ios_base::Init"*) unnamed_addr #1

; Function Attrs: nounwind
declare dso_local void @_ZNSt8ios_base4InitD1Ev(%"class.std::ios_base::Init"*) unnamed_addr #2

; Function Attrs: nounwind
declare dso_local i32 @__cxa_atexit(void (i8*)*, i8*, i8*) #3

; Function Attrs: noinline uwtable
define dso_local void @_Z2inv() #0 {
  %1 = call dereferenceable(280) %"class.std::basic_istream"* @_ZNSirsERi(%"class.std::basic_istream"* @_ZSt3cin, i32* dereferenceable(4) @m)
  %2 = call dereferenceable(280) %"class.std::basic_istream"* @_ZNSirsERi(%"class.std::basic_istream"* %1, i32* dereferenceable(4) @n)
  store i32 0, i32* @i, align 4
  br label %3

3:                                                ; preds = %12, %0
  %4 = load i32, i32* @i, align 4
  %5 = load i32, i32* @m, align 4
  %6 = icmp slt i32 %4, %5
  br i1 %6, label %7, label %15

7:                                                ; preds = %3
  %8 = load i32, i32* @i, align 4
  %9 = sext i32 %8 to i64
  %10 = getelementptr inbounds [100 x i32], [100 x i32]* @a, i64 0, i64 %9
  %11 = call dereferenceable(280) %"class.std::basic_istream"* @_ZNSirsERi(%"class.std::basic_istream"* @_ZSt3cin, i32* dereferenceable(4) %10)
  br label %12

12:                                               ; preds = %7
  %13 = load i32, i32* @i, align 4
  %14 = add nsw i32 %13, 1
  store i32 %14, i32* @i, align 4
  br label %3

15:                                               ; preds = %3
  store i32 0, i32* @i, align 4
  br label %16

16:                                               ; preds = %25, %15
  %17 = load i32, i32* @i, align 4
  %18 = load i32, i32* @n, align 4
  %19 = icmp slt i32 %17, %18
  br i1 %19, label %20, label %28

20:                                               ; preds = %16
  %21 = load i32, i32* @i, align 4
  %22 = sext i32 %21 to i64
  %23 = getelementptr inbounds [100 x i32], [100 x i32]* @b, i64 0, i64 %22
  %24 = call dereferenceable(280) %"class.std::basic_istream"* @_ZNSirsERi(%"class.std::basic_istream"* @_ZSt3cin, i32* dereferenceable(4) %23)
  br label %25

25:                                               ; preds = %20
  %26 = load i32, i32* @i, align 4
  %27 = add nsw i32 %26, 1
  store i32 %27, i32* @i, align 4
  br label %16

28:                                               ; preds = %16
  ret void
}

declare dso_local dereferenceable(280) %"class.std::basic_istream"* @_ZNSirsERi(%"class.std::basic_istream"*, i32* dereferenceable(4)) #1

; Function Attrs: noinline uwtable
define dso_local void @_Z4sortv() #0 {
  %1 = load i32, i32* @m, align 4
  %2 = sext i32 %1 to i64
  %3 = getelementptr inbounds i32, i32* getelementptr inbounds ([100 x i32], [100 x i32]* @a, i64 0, i64 0), i64 %2
  call void @_Z4sortPiS_(i32* getelementptr inbounds ([100 x i32], [100 x i32]* @a, i64 0, i64 0), i32* %3)
  %4 = load i32, i32* @n, align 4
  %5 = sext i32 %4 to i64
  %6 = getelementptr inbounds i32, i32* getelementptr inbounds ([100 x i32], [100 x i32]* @b, i64 0, i64 0), i64 %5
  call void @_Z4sortPiS_(i32* getelementptr inbounds ([100 x i32], [100 x i32]* @b, i64 0, i64 0), i32* %6)
  ret void
}

declare dso_local void @_Z4sortPiS_(i32*, i32*) #1

; Function Attrs: noinline nounwind uwtable
define dso_local void @_Z3addv() #4 {
  store i32 0, i32* @i, align 4
  br label %1

1:                                                ; preds = %13, %0
  %2 = load i32, i32* @i, align 4
  %3 = load i32, i32* @m, align 4
  %4 = icmp slt i32 %2, %3
  br i1 %4, label %5, label %16

5:                                                ; preds = %1
  %6 = load i32, i32* @i, align 4
  %7 = sext i32 %6 to i64
  %8 = getelementptr inbounds [100 x i32], [100 x i32]* @a, i64 0, i64 %7
  %9 = load i32, i32* %8, align 4
  %10 = load i32, i32* @i, align 4
  %11 = sext i32 %10 to i64
  %12 = getelementptr inbounds [200 x i32], [200 x i32]* @c, i64 0, i64 %11
  store i32 %9, i32* %12, align 4
  br label %13

13:                                               ; preds = %5
  %14 = load i32, i32* @i, align 4
  %15 = add nsw i32 %14, 1
  store i32 %15, i32* @i, align 4
  br label %1

16:                                               ; preds = %1
  %17 = load i32, i32* @m, align 4
  store i32 %17, i32* @i, align 4
  br label %18

18:                                               ; preds = %34, %16
  %19 = load i32, i32* @i, align 4
  %20 = load i32, i32* @m, align 4
  %21 = load i32, i32* @n, align 4
  %22 = add nsw i32 %20, %21
  %23 = icmp slt i32 %19, %22
  br i1 %23, label %24, label %37

24:                                               ; preds = %18
  %25 = load i32, i32* @i, align 4
  %26 = load i32, i32* @m, align 4
  %27 = sub nsw i32 %25, %26
  %28 = sext i32 %27 to i64
  %29 = getelementptr inbounds [100 x i32], [100 x i32]* @b, i64 0, i64 %28
  %30 = load i32, i32* %29, align 4
  %31 = load i32, i32* @i, align 4
  %32 = sext i32 %31 to i64
  %33 = getelementptr inbounds [200 x i32], [200 x i32]* @c, i64 0, i64 %32
  store i32 %30, i32* %33, align 4
  br label %34

34:                                               ; preds = %24
  %35 = load i32, i32* @i, align 4
  %36 = add nsw i32 %35, 1
  store i32 %36, i32* @i, align 4
  br label %18

37:                                               ; preds = %18
  ret void
}

; Function Attrs: noinline uwtable
define dso_local void @_Z3outv() #0 {
  %1 = load i32, i32* getelementptr inbounds ([200 x i32], [200 x i32]* @c, i64 0, i64 0), align 16
  %2 = call dereferenceable(272) %"class.std::basic_ostream"* @_ZNSolsEi(%"class.std::basic_ostream"* @_ZSt4cout, i32 %1)
  store i32 1, i32* @i, align 4
  br label %3

3:                                                ; preds = %16, %0
  %4 = load i32, i32* @i, align 4
  %5 = load i32, i32* @m, align 4
  %6 = load i32, i32* @n, align 4
  %7 = add nsw i32 %5, %6
  %8 = icmp slt i32 %4, %7
  br i1 %8, label %9, label %19

9:                                                ; preds = %3
  %10 = call dereferenceable(272) %"class.std::basic_ostream"* @_ZStlsISt11char_traitsIcEERSt13basic_ostreamIcT_ES5_PKc(%"class.std::basic_ostream"* dereferenceable(272) @_ZSt4cout, i8* getelementptr inbounds ([2 x i8], [2 x i8]* @.str, i64 0, i64 0))
  %11 = load i32, i32* @i, align 4
  %12 = sext i32 %11 to i64
  %13 = getelementptr inbounds [200 x i32], [200 x i32]* @c, i64 0, i64 %12
  %14 = load i32, i32* %13, align 4
  %15 = call dereferenceable(272) %"class.std::basic_ostream"* @_ZNSolsEi(%"class.std::basic_ostream"* %10, i32 %14)
  br label %16

16:                                               ; preds = %9
  %17 = load i32, i32* @i, align 4
  %18 = add nsw i32 %17, 1
  store i32 %18, i32* @i, align 4
  br label %3

19:                                               ; preds = %3
  ret void
}

declare dso_local dereferenceable(272) %"class.std::basic_ostream"* @_ZNSolsEi(%"class.std::basic_ostream"*, i32) #1

declare dso_local dereferenceable(272) %"class.std::basic_ostream"* @_ZStlsISt11char_traitsIcEERSt13basic_ostreamIcT_ES5_PKc(%"class.std::basic_ostream"* dereferenceable(272), i8*) #1

; Function Attrs: noinline norecurse uwtable
define dso_local i32 @main() #5 {
  %1 = alloca i32, align 4
  store i32 0, i32* %1, align 4
  call void @_Z2inv()
  call void @_Z4sortv()
  call void @_Z3addv()
  call void @_Z3outv()
  ret i32 0
}

; Function Attrs: noinline uwtable
define internal void @_GLOBAL__sub_I_1054.cpp() #0 section ".text.startup" {
  call void @__cxx_global_var_init()
  ret void
}


!llvm.module.flags = !{!0}
!llvm.ident = !{!1}

!0 = !{i32 1, !"wchar_size", i32 4}
!1 = !{!"clang version 10.0.0-4ubuntu1 "}
