; ModuleID = 'source-C-CXX/7/1054.cpp'
source_filename = "source-C-CXX/7/1054.cpp"
target datalayout = "e-m:e-p270:32:32-p271:32:32-p272:64:64-i64:64-f80:128-n8:16:32:64-S128"
target triple = "x86_64-pc-linux-gnu"

%"class.std::ios_base::Init" = type { i8 }
%"class.std::basic_istream" = type { i32 (...)**, i64, %"class.std::basic_ios" }
%"class.std::basic_ios" = type { %"class.std::ios_base", %"class.std::basic_ostream"*, i8, i8, %"class.std::basic_streambuf"*, %"class.std::ctype"*, %"class.std::num_put"*, %"class.std::num_get"* }
%"class.std::ios_base" = type { i32 (...)**, i64, i64, i32, i32, i32, %"struct.std::ios_base::_Callback_list"*, %"struct.std::ios_base::_Words", [8 x %"struct.std::ios_base::_Words"], i32, %"struct.std::ios_base::_Words"*, %"class.std::locale" }
%"struct.std::ios_base::_Callback_list" = type { %"struct.std::ios_base::_Callback_list"*, void (i32, %"class.std::ios_base"*, i32)*, i32, i32 }
%"struct.std::ios_base::_Words" = type { i8*, i64 }
%"class.std::locale" = type { %"class.std::locale::_Impl"* }
%"class.std::locale::_Impl" = type { i32, %"class.std::locale::facet"**, i64, %"class.std::locale::facet"**, i8** }
%"class.std::locale::facet" = type <{ i32 (...)**, i32, [4 x i8] }>
%"class.std::basic_ostream" = type { i32 (...)**, %"class.std::basic_ios" }
%"class.std::basic_streambuf" = type { i32 (...)**, i8*, i8*, i8*, i8*, i8*, i8*, %"class.std::locale" }
%"class.std::ctype" = type <{ %"class.std::locale::facet.base", [4 x i8], %struct.__locale_struct*, i8, [7 x i8], i32*, i32*, i16*, i8, [256 x i8], [256 x i8], i8, [6 x i8] }>
%"class.std::locale::facet.base" = type <{ i32 (...)**, i32 }>
%struct.__locale_struct = type { [13 x %struct.__locale_data*], i16*, i32*, i32*, [13 x i8*] }
%struct.__locale_data = type opaque
%"class.std::num_put" = type { %"class.std::locale::facet.base", [4 x i8] }
%"class.std::num_get" = type { %"class.std::locale::facet.base", [4 x i8] }

@_ZStL8__ioinit = internal global %"class.std::ios_base::Init" zeroinitializer, align 1
@__dso_handle = external hidden global i8
@m = dso_local global i32 0, align 4
@n = dso_local global i32 0, align 4
@i = dso_local local_unnamed_addr global i32 0, align 4
@a = dso_local global [100 x i32] zeroinitializer, align 16
@b = dso_local global [100 x i32] zeroinitializer, align 16
@c = dso_local local_unnamed_addr global [200 x i32] zeroinitializer, align 16
@_ZSt3cin = external global %"class.std::basic_istream", align 8
@_ZSt4cout = external global %"class.std::basic_ostream", align 8
@.str = private unnamed_addr constant [2 x i8] c" \00", align 1
@llvm.global_ctors = appending global [1 x { i32, void ()*, i8* }] [{ i32, void ()*, i8* } { i32 65535, void ()* @_GLOBAL__sub_I_1054.cpp, i8* null }]

declare void @_ZNSt8ios_base4InitC1Ev(%"class.std::ios_base::Init"* nonnull align 1 dereferenceable(1)) unnamed_addr #0

; Function Attrs: nounwind
declare void @_ZNSt8ios_base4InitD1Ev(%"class.std::ios_base::Init"* nonnull align 1 dereferenceable(1)) unnamed_addr #1

; Function Attrs: nofree nounwind
declare i32 @__cxa_atexit(void (i8*)*, i8*, i8*) local_unnamed_addr #2

; Function Attrs: mustprogress sspstrong uwtable
define dso_local void @_Z2inv() local_unnamed_addr #3 {
  %1 = tail call nonnull align 8 dereferenceable(16) %"class.std::basic_istream"* @_ZNSirsERi(%"class.std::basic_istream"* nonnull align 8 dereferenceable(16) @_ZSt3cin, i32* nonnull align 4 dereferenceable(4) @m)
  %2 = tail call nonnull align 8 dereferenceable(16) %"class.std::basic_istream"* @_ZNSirsERi(%"class.std::basic_istream"* nonnull align 8 dereferenceable(16) %1, i32* nonnull align 4 dereferenceable(4) @n)
  store i32 0, i32* @i, align 4, !tbaa !5
  %3 = load i32, i32* @m, align 4, !tbaa !5
  %4 = icmp sgt i32 %3, 0
  br i1 %4, label %8, label %5

5:                                                ; preds = %8, %0
  store i32 0, i32* @i, align 4, !tbaa !5
  %6 = load i32, i32* @n, align 4, !tbaa !5
  %7 = icmp sgt i32 %6, 0
  br i1 %7, label %17, label %26

8:                                                ; preds = %0, %8
  %9 = phi i32 [ %14, %8 ], [ 0, %0 ]
  %10 = sext i32 %9 to i64
  %11 = getelementptr inbounds [100 x i32], [100 x i32]* @a, i64 0, i64 %10
  %12 = tail call nonnull align 8 dereferenceable(16) %"class.std::basic_istream"* @_ZNSirsERi(%"class.std::basic_istream"* nonnull align 8 dereferenceable(16) @_ZSt3cin, i32* nonnull align 4 dereferenceable(4) %11)
  %13 = load i32, i32* @i, align 4, !tbaa !5
  %14 = add nsw i32 %13, 1
  store i32 %14, i32* @i, align 4, !tbaa !5
  %15 = load i32, i32* @m, align 4, !tbaa !5
  %16 = icmp slt i32 %14, %15
  br i1 %16, label %8, label %5, !llvm.loop !9

17:                                               ; preds = %5, %17
  %18 = phi i32 [ %23, %17 ], [ 0, %5 ]
  %19 = sext i32 %18 to i64
  %20 = getelementptr inbounds [100 x i32], [100 x i32]* @b, i64 0, i64 %19
  %21 = tail call nonnull align 8 dereferenceable(16) %"class.std::basic_istream"* @_ZNSirsERi(%"class.std::basic_istream"* nonnull align 8 dereferenceable(16) @_ZSt3cin, i32* nonnull align 4 dereferenceable(4) %20)
  %22 = load i32, i32* @i, align 4, !tbaa !5
  %23 = add nsw i32 %22, 1
  store i32 %23, i32* @i, align 4, !tbaa !5
  %24 = load i32, i32* @n, align 4, !tbaa !5
  %25 = icmp slt i32 %23, %24
  br i1 %25, label %17, label %26, !llvm.loop !11

26:                                               ; preds = %17, %5
  ret void
}

declare nonnull align 8 dereferenceable(16) %"class.std::basic_istream"* @_ZNSirsERi(%"class.std::basic_istream"* nonnull align 8 dereferenceable(16), i32* nonnull align 4 dereferenceable(4)) local_unnamed_addr #0

; Function Attrs: mustprogress sspstrong uwtable
define dso_local void @_Z4sortv() local_unnamed_addr #3 {
  %1 = load i32, i32* @m, align 4, !tbaa !5
  %2 = sext i32 %1 to i64
  %3 = getelementptr inbounds [100 x i32], [100 x i32]* @a, i64 0, i64 %2
  tail call void @_Z4sortPiS_(i32* getelementptr inbounds ([100 x i32], [100 x i32]* @a, i64 0, i64 0), i32* nonnull %3)
  %4 = load i32, i32* @n, align 4, !tbaa !5
  %5 = sext i32 %4 to i64
  %6 = getelementptr inbounds [100 x i32], [100 x i32]* @b, i64 0, i64 %5
  tail call void @_Z4sortPiS_(i32* getelementptr inbounds ([100 x i32], [100 x i32]* @b, i64 0, i64 0), i32* nonnull %6)
  ret void
}

declare void @_Z4sortPiS_(i32*, i32*) local_unnamed_addr #0

; Function Attrs: mustprogress nofree norecurse nosync nounwind sspstrong uwtable
define dso_local void @_Z3addv() local_unnamed_addr #4 {
  %1 = load i32, i32* @m, align 4, !tbaa !5
  %2 = icmp sgt i32 %1, 0
  br i1 %2, label %3, label %6

3:                                                ; preds = %0
  %4 = zext i32 %1 to i64
  %5 = shl nuw nsw i64 %4, 2
  call void @llvm.memcpy.p0i8.p0i8.i64(i8* align 16 bitcast ([200 x i32]* @c to i8*), i8* align 16 bitcast ([100 x i32]* @a to i8*), i64 %5, i1 false)
  br label %6

6:                                                ; preds = %3, %0
  %7 = load i32, i32* @n, align 4, !tbaa !5
  %8 = add i32 %7, %1
  %9 = icmp sgt i32 %7, 0
  br i1 %9, label %10, label %28

10:                                               ; preds = %6
  %11 = sext i32 %1 to i64
  %12 = getelementptr [200 x i32], [200 x i32]* @c, i64 0, i64 %11
  %13 = bitcast i32* %12 to i8*
  %14 = add i32 %1, 1
  %15 = call i32 @llvm.smax.i32(i32 %8, i32 %14)
  %16 = xor i32 %1, -1
  %17 = add i32 %15, %16
  %18 = zext i32 %17 to i64
  %19 = shl nuw nsw i64 %18, 2
  %20 = add nuw nsw i64 %19, 4
  call void @llvm.memcpy.p0i8.p0i8.i64(i8* noundef nonnull align 4 dereferenceable(1) %13, i8* noundef nonnull align 16 dereferenceable(1) bitcast ([100 x i32]* @b to i8*), i64 %20, i1 false)
  %21 = sext i32 %8 to i64
  br label %22

22:                                               ; preds = %10, %22
  %23 = phi i64 [ %11, %10 ], [ %24, %22 ]
  %24 = add nsw i64 %23, 1
  %25 = icmp slt i64 %24, %21
  br i1 %25, label %22, label %26, !llvm.loop !12

26:                                               ; preds = %22
  %27 = trunc i64 %24 to i32
  br label %28

28:                                               ; preds = %26, %6
  %29 = phi i32 [ %1, %6 ], [ %27, %26 ]
  store i32 %29, i32* @i, align 4, !tbaa !5
  ret void
}

; Function Attrs: mustprogress sspstrong uwtable
define dso_local void @_Z3outv() local_unnamed_addr #3 {
  %1 = load i32, i32* getelementptr inbounds ([200 x i32], [200 x i32]* @c, i64 0, i64 0), align 16, !tbaa !5
  %2 = tail call nonnull align 8 dereferenceable(8) %"class.std::basic_ostream"* @_ZNSolsEi(%"class.std::basic_ostream"* nonnull align 8 dereferenceable(8) @_ZSt4cout, i32 %1)
  store i32 1, i32* @i, align 4, !tbaa !5
  %3 = load i32, i32* @m, align 4, !tbaa !5
  %4 = load i32, i32* @n, align 4, !tbaa !5
  %5 = add nsw i32 %4, %3
  %6 = icmp sgt i32 %5, 1
  br i1 %6, label %7, label %20

7:                                                ; preds = %0, %7
  %8 = tail call nonnull align 8 dereferenceable(8) %"class.std::basic_ostream"* @_ZSt16__ostream_insertIcSt11char_traitsIcEERSt13basic_ostreamIT_T0_ES6_PKS3_l(%"class.std::basic_ostream"* nonnull align 8 dereferenceable(8) @_ZSt4cout, i8* nonnull getelementptr inbounds ([2 x i8], [2 x i8]* @.str, i64 0, i64 0), i64 1)
  %9 = load i32, i32* @i, align 4, !tbaa !5
  %10 = sext i32 %9 to i64
  %11 = getelementptr inbounds [200 x i32], [200 x i32]* @c, i64 0, i64 %10
  %12 = load i32, i32* %11, align 4, !tbaa !5
  %13 = tail call nonnull align 8 dereferenceable(8) %"class.std::basic_ostream"* @_ZNSolsEi(%"class.std::basic_ostream"* nonnull align 8 dereferenceable(8) @_ZSt4cout, i32 %12)
  %14 = load i32, i32* @i, align 4, !tbaa !5
  %15 = add nsw i32 %14, 1
  store i32 %15, i32* @i, align 4, !tbaa !5
  %16 = load i32, i32* @m, align 4, !tbaa !5
  %17 = load i32, i32* @n, align 4, !tbaa !5
  %18 = add nsw i32 %17, %16
  %19 = icmp slt i32 %15, %18
  br i1 %19, label %7, label %20, !llvm.loop !13

20:                                               ; preds = %7, %0
  ret void
}

declare nonnull align 8 dereferenceable(8) %"class.std::basic_ostream"* @_ZNSolsEi(%"class.std::basic_ostream"* nonnull align 8 dereferenceable(8), i32) local_unnamed_addr #0

; Function Attrs: mustprogress norecurse sspstrong uwtable
define dso_local i32 @main() local_unnamed_addr #5 {
  tail call void @_Z2inv()
  %1 = load i32, i32* @m, align 4, !tbaa !5
  %2 = sext i32 %1 to i64
  %3 = getelementptr inbounds [100 x i32], [100 x i32]* @a, i64 0, i64 %2
  tail call void @_Z4sortPiS_(i32* getelementptr inbounds ([100 x i32], [100 x i32]* @a, i64 0, i64 0), i32* nonnull %3)
  %4 = load i32, i32* @n, align 4, !tbaa !5
  %5 = sext i32 %4 to i64
  %6 = getelementptr inbounds [100 x i32], [100 x i32]* @b, i64 0, i64 %5
  tail call void @_Z4sortPiS_(i32* getelementptr inbounds ([100 x i32], [100 x i32]* @b, i64 0, i64 0), i32* nonnull %6)
  %7 = load i32, i32* @m, align 4, !tbaa !5
  %8 = icmp sgt i32 %7, 0
  br i1 %8, label %9, label %12

9:                                                ; preds = %0
  %10 = zext i32 %7 to i64
  %11 = shl nuw nsw i64 %10, 2
  tail call void @llvm.memcpy.p0i8.p0i8.i64(i8* align 16 bitcast ([200 x i32]* @c to i8*), i8* align 16 bitcast ([100 x i32]* @a to i8*), i64 %11, i1 false) #9
  br label %12

12:                                               ; preds = %9, %0
  %13 = load i32, i32* @n, align 4, !tbaa !5
  %14 = add i32 %13, %7
  %15 = icmp sgt i32 %13, 0
  br i1 %15, label %16, label %31

16:                                               ; preds = %12
  %17 = sext i32 %7 to i64
  %18 = getelementptr [200 x i32], [200 x i32]* @c, i64 0, i64 %17
  %19 = bitcast i32* %18 to i8*
  %20 = add i32 %7, 1
  %21 = tail call i32 @llvm.smax.i32(i32 %14, i32 %20) #9
  %22 = xor i32 %7, -1
  %23 = add i32 %21, %22
  %24 = zext i32 %23 to i64
  %25 = shl nuw nsw i64 %24, 2
  %26 = add nuw nsw i64 %25, 4
  tail call void @llvm.memcpy.p0i8.p0i8.i64(i8* noundef nonnull align 4 dereferenceable(1) %19, i8* noundef nonnull align 16 dereferenceable(1) bitcast ([100 x i32]* @b to i8*), i64 %26, i1 false) #9
  %27 = add nsw i64 %17, 1
  %28 = sext i32 %14 to i64
  %29 = call i64 @llvm.smax.i64(i64 %27, i64 %28)
  %30 = trunc i64 %29 to i32
  br label %31

31:                                               ; preds = %12, %16
  %32 = phi i32 [ %7, %12 ], [ %30, %16 ]
  store i32 %32, i32* @i, align 4, !tbaa !5
  %33 = load i32, i32* getelementptr inbounds ([200 x i32], [200 x i32]* @c, i64 0, i64 0), align 16, !tbaa !5
  %34 = tail call nonnull align 8 dereferenceable(8) %"class.std::basic_ostream"* @_ZNSolsEi(%"class.std::basic_ostream"* nonnull align 8 dereferenceable(8) @_ZSt4cout, i32 %33)
  store i32 1, i32* @i, align 4, !tbaa !5
  %35 = load i32, i32* @m, align 4, !tbaa !5
  %36 = load i32, i32* @n, align 4, !tbaa !5
  %37 = add nsw i32 %36, %35
  %38 = icmp sgt i32 %37, 1
  br i1 %38, label %39, label %52

39:                                               ; preds = %31, %39
  %40 = tail call nonnull align 8 dereferenceable(8) %"class.std::basic_ostream"* @_ZSt16__ostream_insertIcSt11char_traitsIcEERSt13basic_ostreamIT_T0_ES6_PKS3_l(%"class.std::basic_ostream"* nonnull align 8 dereferenceable(8) @_ZSt4cout, i8* nonnull getelementptr inbounds ([2 x i8], [2 x i8]* @.str, i64 0, i64 0), i64 1)
  %41 = load i32, i32* @i, align 4, !tbaa !5
  %42 = sext i32 %41 to i64
  %43 = getelementptr inbounds [200 x i32], [200 x i32]* @c, i64 0, i64 %42
  %44 = load i32, i32* %43, align 4, !tbaa !5
  %45 = tail call nonnull align 8 dereferenceable(8) %"class.std::basic_ostream"* @_ZNSolsEi(%"class.std::basic_ostream"* nonnull align 8 dereferenceable(8) @_ZSt4cout, i32 %44)
  %46 = load i32, i32* @i, align 4, !tbaa !5
  %47 = add nsw i32 %46, 1
  store i32 %47, i32* @i, align 4, !tbaa !5
  %48 = load i32, i32* @m, align 4, !tbaa !5
  %49 = load i32, i32* @n, align 4, !tbaa !5
  %50 = add nsw i32 %49, %48
  %51 = icmp slt i32 %47, %50
  br i1 %51, label %39, label %52, !llvm.loop !13

52:                                               ; preds = %39, %31
  ret i32 0
}

declare nonnull align 8 dereferenceable(8) %"class.std::basic_ostream"* @_ZSt16__ostream_insertIcSt11char_traitsIcEERSt13basic_ostreamIT_T0_ES6_PKS3_l(%"class.std::basic_ostream"* nonnull align 8 dereferenceable(8), i8*, i64) local_unnamed_addr #0

; Function Attrs: sspstrong uwtable
define internal void @_GLOBAL__sub_I_1054.cpp() #6 section ".text.startup" {
  tail call void @_ZNSt8ios_base4InitC1Ev(%"class.std::ios_base::Init"* nonnull align 1 dereferenceable(1) @_ZStL8__ioinit)
  %1 = tail call i32 @__cxa_atexit(void (i8*)* bitcast (void (%"class.std::ios_base::Init"*)* @_ZNSt8ios_base4InitD1Ev to void (i8*)*), i8* getelementptr inbounds (%"class.std::ios_base::Init", %"class.std::ios_base::Init"* @_ZStL8__ioinit, i64 0, i32 0), i8* nonnull @__dso_handle) #9
  ret void
}

; Function Attrs: argmemonly nofree nounwind willreturn
declare void @llvm.memcpy.p0i8.p0i8.i64(i8* noalias nocapture writeonly, i8* noalias nocapture readonly, i64, i1 immarg) #7

; Function Attrs: nofree nosync nounwind readnone speculatable willreturn
declare i32 @llvm.smax.i32(i32, i32) #8

; Function Attrs: nofree nosync nounwind readnone speculatable willreturn
declare i64 @llvm.smax.i64(i64, i64) #8


!llvm.module.flags = !{!0, !1, !2, !3}
!llvm.ident = !{!4}

!0 = !{i32 1, !"wchar_size", i32 4}
!1 = !{i32 7, !"PIC Level", i32 2}
!2 = !{i32 7, !"PIE Level", i32 2}
!3 = !{i32 7, !"uwtable", i32 1}
!4 = !{!"clang version 13.0.0"}
!5 = !{!6, !6, i64 0}
!6 = !{!"int", !7, i64 0}
!7 = !{!"omnipotent char", !8, i64 0}
!8 = !{!"Simple C++ TBAA"}
!9 = distinct !{!9, !10}
!10 = !{!"llvm.loop.mustprogress"}
!11 = distinct !{!11, !10}
!12 = distinct !{!12, !10}
!13 = distinct !{!13, !10}
